(lp0
ccopy_reg
_reconstructor
p1
(c__main__
node
p2
c__builtin__
object
p3
Ntp4
Rp5
(dp6
S'value'
p7
F0.5570486186614341
sS'activation'
p8
c__main__
bias
p9
sS'weights'
p10
(dp11
sS'name'
p12
S'BI'
p13
sS'predecessors'
p14
(lp15
sbag1
(g2
g3
Ntp16
Rp17
(dp18
g7
F0.680746709165295
sg8
g9
sg10
(dp19
sg12
S'BH'
p20
sg14
(lp21
sba.