(dp0
(S'H5'
p1
S'O3'
p2
tp3
F-0.43485016027854156
s(S'BH'
p4
S'O4'
p5
tp6
F0.9393619182481491
s(S'I1'
p7
g4
tp8
F0.9767457575891746
s(g1
S'O2'
p9
tp10
F-0.32029717792951856
s(g7
S'H1'
p11
tp12
F0.8391572485642388
s(S'I2'
p13
S'H3'
p14
tp15
F0.38572403272526956
s(g14
g2
tp16
F0.17904260889736406
s(S'H4'
p17
g5
tp18
F-0.14373490916193854
s(S'H2'
p19
g9
tp20
F0.2075573454822151
s(g11
g5
tp21
F-0.739673196373162
s(S'BI'
p22
g11
tp23
F0.3415967035835129
s(g17
g2
tp24
F-0.7866965644989458
s(g22
g4
tp25
F-0.09138606006382533
s(g11
S'O1'
p26
tp27
F-0.2614193236286418
s(g13
g19
tp28
F-0.8771650783160473
s(g22
g1
tp29
F-0.8988440923879966
s(g19
g26
tp30
F-0.6619536134721246
s(g7
g19
tp31
F-0.9345228738403849
s(g13
g1
tp32
F-0.5737727371529788
s(g4
g2
tp33
F0.7423482054190432
s(g1
g26
tp34
F-0.788875217149646
s(g17
g9
tp35
F-0.8436111977595406
s(g14
g5
tp36
F0.05064243011771423
s(g13
g11
tp37
F0.6436214323590881
s(g1
g5
tp38
F-0.8718882534802237
s(g22
g17
tp39
F-0.7080928496410296
s(g11
g9
tp40
F-0.6459361960682612
s(g7
g14
tp41
F-0.9815181933604084
s(g14
g26
tp42
F-1.0238347755476755
s(g13
g17
tp43
F0.33629395452254285
s(g4
g9
tp44
F0.6772855516953599
s(g22
g14
tp45
F0.18754996508330268
s(g19
g5
tp46
F0.6371726079422624
s(g7
g17
tp47
F-0.7812424734174861
s(g17
g26
tp48
F0.24290860637839093
s(g11
g2
tp49
F0.38906330680636064
s(g14
g9
tp50
F-0.6192019761327434
s(g4
g26
tp51
F-0.02578686387529916
s(g22
g19
tp52
F0.16845624395668202
s(g19
g2
tp53
F-0.06344069057453355
s(g13
g4
tp54
F0.07755749374597276
s(g7
g1
tp55
F-0.237621314571229
s.