(dp0
(S'H5'
p1
S'O3'
p2
tp3
F-0.5911409346629826
s(S'BH'
p4
S'O4'
p5
tp6
F0.9393619182481491
s(S'I1'
p7
g4
tp8
F0.9767457575891746
s(g1
S'O2'
p9
tp10
F-0.20536806352807482
s(g7
S'H1'
p11
tp12
F0.8587727642040432
s(S'I2'
p13
S'H3'
p14
tp15
F0.36312333898009136
s(g14
g2
tp16
F-0.025197450664474978
s(S'H4'
p17
g5
tp18
F-0.33215805664658477
s(S'H2'
p19
g9
tp20
F0.2791720371041186
s(g11
g5
tp21
F-1.02161604274699
s(S'BI'
p22
g11
tp23
F0.3415967035835129
s(g17
g2
tp24
F-1.0261688500676676
s(g22
g4
tp25
F-0.09138606006382533
s(g11
S'O1'
p26
tp27
F-0.5089895653719636
s(g13
g19
tp28
F-0.8913785485150306
s(g22
g1
tp29
F-0.8988440923879966
s(g19
g26
tp30
F-0.8243518711269865
s(g7
g19
tp31
F-0.8991039401623859
s(g13
g1
tp32
F-0.4868873207272667
s(g4
g2
tp33
F0.7423482054190432
s(g1
g26
tp34
F-1.0068237823700554
s(g17
g9
tp35
F-0.7711038377291286
s(g14
g5
tp36
F-0.10148215698389638
s(g13
g11
tp37
F0.6512305210368315
s(g1
g5
tp38
F-1.050667104961743
s(g22
g17
tp39
F-0.7080928496410296
s(g11
g9
tp40
F-0.49019123265060865
s(g7
g14
tp41
F-0.9672598369309894
s(g14
g26
tp42
F-1.158997030915671
s(g13
g17
tp43
F0.4940708054869007
s(g4
g9
tp44
F0.6772855516953599
s(g22
g14
tp45
F0.18754996508330268
s(g19
g5
tp46
F0.5133058389622658
s(g7
g17
tp47
F-0.7281426713522167
s(g17
g26
tp48
F0.09140477426147123
s(g11
g2
tp49
F-0.037617944927287046
s(g14
g9
tp50
F-0.5903000507834015
s(g4
g26
tp51
F-0.02578686387529916
s(g22
g19
tp52
F0.16845624395668202
s(g19
g2
tp53
F-0.12152489785991269
s(g13
g4
tp54
F0.07755749374597276
s(g7
g1
tp55
F-0.08743541622150076
s.