(dp0
(S'H5'
p1
S'O3'
p2
tp3
F-1.5697754572515286
s(S'BH'
p4
S'O4'
p5
tp6
F-0.1879325378501372
s(S'I1'
p7
g4
tp8
F-5.954021391206916
s(g1
S'O2'
p9
tp10
F-12.411027379615739
s(g7
S'H1'
p11
tp12
F-4.590697395291534
s(S'I2'
p13
S'H3'
p14
tp15
F-14.54685274713477
s(g14
g2
tp16
F0.3011192051553096
s(S'H4'
p17
g5
tp18
F-1.6531668838868867
s(S'H2'
p19
g9
tp20
F0.6947026553524609
s(g11
g5
tp21
F-2.0020804633490035
s(S'BI'
p22
g11
tp23
F0.7575318309119475
s(g17
g2
tp24
F2.721522100065594
s(g22
g4
tp25
F-0.9814468936372835
s(g11
S'O1'
p26
tp27
F-4.303592703764386
s(g13
g19
tp28
F-16.966281086010046
s(g22
g1
tp29
F-0.40987225161120744
s(g19
g26
tp30
F-4.03917359855514
s(g7
g19
tp31
F-0.5456182277419417
s(g13
g1
tp32
F10.149509160167495
s(g4
g2
tp33
F0.9421427060637769
s(g1
g26
tp34
F2.3934822807730947
s(g17
g9
tp35
F0.3734917262680157
s(g14
g5
tp36
F-4.354343499168856
s(g13
g11
tp37
F-11.028977395599883
s(g1
g5
tp38
F0.040077491565546706
s(g22
g17
tp39
F-0.994372700872874
s(g11
g9
tp40
F-0.7057836386162494
s(g7
g14
tp41
F13.17822912267245
s(g14
g26
tp42
F-16.021960448573214
s(g13
g17
tp43
F-14.42696399728316
s(g4
g9
tp44
F0.09881889894110896
s(g22
g14
tp45
F0.22237978066135744
s(g19
g5
tp46
F-1.0909135550132525
s(g7
g17
tp47
F-5.090027498648763
s(g17
g26
tp48
F-2.7329999951280786
s(g11
g2
tp49
F2.9207042958816665
s(g14
g9
tp50
F12.41546104069147
s(g4
g26
tp51
F0.858442078927494
s(g22
g19
tp52
F0.013486959339557125
s(g19
g2
tp53
F2.3960248166626474
s(g13
g4
tp54
F-2.045800291199761
s(g7
g1
tp55
F-9.07432198428452
s.