(dp0
(S'H5'
p1
S'O3'
p2
tp3
F16.580695302665035
s(S'BH'
p4
S'O4'
p5
tp6
F0.9393619182481491
s(S'I1'
p7
g4
tp8
F0.9767457575891746
s(g1
S'O2'
p9
tp10
F12.380029778772151
s(g7
S'H1'
p11
tp12
F2.2326955111150983
s(S'I2'
p13
S'H3'
p14
tp15
F-0.6161169279285497
s(g14
g2
tp16
F19.638443640869376
s(S'H4'
p17
g5
tp18
F24.23519839330572
s(S'H2'
p19
g9
tp20
F1.35910565095344
s(g11
g5
tp21
F-29.504828567691163
s(S'BI'
p22
g11
tp23
F0.3415967035835129
s(g17
g2
tp24
F9.916750948719985
s(g22
g4
tp25
F-0.09138606006382533
s(g11
S'O1'
p26
tp27
F2.12168610126092
s(g13
g19
tp28
F-0.4636535491216217
s(g22
g1
tp29
F-0.8988440923879966
s(g19
g26
tp30
F-18.99904924929355
s(g7
g19
tp31
F-2.4234066221841215
s(g13
g1
tp32
F-26.05472297693562
s(g4
g2
tp33
F0.7423482054190432
s(g1
g26
tp34
F-12.600510491895601
s(g17
g9
tp35
F-24.918470772409236
s(g14
g5
tp36
F4.7425937853768625
s(g13
g11
tp37
F1.4336997341310806
s(g1
g5
tp38
F7.520456680296497
s(g22
g17
tp39
F-0.7080928496410296
s(g11
g9
tp40
F1.7350417756146228
s(g7
g14
tp41
F-2.3389257823816743
s(g14
g26
tp42
F-15.087855051267468
s(g13
g17
tp43
F35.509691335998006
s(g4
g9
tp44
F0.6772855516953599
s(g22
g14
tp45
F0.18754996508330268
s(g19
g5
tp46
F2.7244053513862507
s(g7
g17
tp47
F-32.51227832498567
s(g17
g26
tp48
F5.691156880697578
s(g11
g2
tp49
F-27.994305864460692
s(g14
g9
tp50
F-8.267033746676306
s(g4
g26
tp51
F-0.02578686387529916
s(g22
g19
tp52
F0.16845624395668202
s(g19
g2
tp53
F17.289418854671787
s(g13
g4
tp54
F0.07755749374597276
s(g7
g1
tp55
F27.9482920978526
s.