(dp0
(S'H5'
p1
S'O3'
p2
tp3
F-1.0209132896505595
s(S'BH'
p4
S'O4'
p5
tp6
F-0.6507345004860302
s(S'I1'
p7
g4
tp8
F-0.21862877466761896
s(g1
S'O2'
p9
tp10
F-0.45110195337272735
s(g7
S'H1'
p11
tp12
F-0.21297815768316603
s(S'I2'
p13
S'H3'
p14
tp15
F-2.0165194788997165
s(g14
g2
tp16
F-0.13847931163529748
s(S'H4'
p17
g5
tp18
F-0.0711767640163955
s(S'H2'
p19
g9
tp20
F-1.4478275237283516
s(g11
g5
tp21
F-1.165425056736771
s(S'BI'
p22
g11
tp23
F0.5048091813499689
s(g17
g2
tp24
F-0.21260718169109238
s(g22
g4
tp25
F-0.45399594796626497
s(g11
S'O1'
p26
tp27
F-0.5133918139187477
s(g13
g19
tp28
F0.2757285514213537
s(g22
g1
tp29
F-0.4973113724109184
s(g19
g26
tp30
F0.06471264353689812
s(g7
g19
tp31
F-1.4015459856021102
s(g13
g1
tp32
F-0.001448818241393919
s(g4
g2
tp33
F0.016775587993367203
s(g1
g26
tp34
F-1.0003368329555318
s(g17
g9
tp35
F-0.8434151048170753
s(g14
g5
tp36
F-0.2187800206047417
s(g13
g11
tp37
F-0.12928017924590693
s(g1
g5
tp38
F-0.8389011623482737
s(g22
g17
tp39
F0.7654502100655909
s(g11
g9
tp40
F-0.13676146010911142
s(g7
g14
tp41
F-0.06811608808840616
s(g14
g26
tp42
F-2.0455610751236386
s(g13
g17
tp43
F-0.7710425387592204
s(g4
g9
tp44
F-0.2908553138905874
s(g22
g14
tp45
F-0.17988047698027454
s(g19
g5
tp46
F-0.811355803116294
s(g7
g17
tp47
F-1.0146885316570653
s(g17
g26
tp48
F-1.284073081261553
s(g11
g2
tp49
F-0.674755784536859
s(g14
g9
tp50
F0.28270900579804037
s(g4
g26
tp51
F-0.001848989025405312
s(g22
g19
tp52
F0.828101198184492
s(g19
g2
tp53
F0.28221537161904675
s(g13
g4
tp54
F-0.05448053698945304
s(g7
g1
tp55
F-0.21958922496286776
s.