(dp0
(S'H5'
p1
S'O3'
p2
tp3
F5.279699196569077
s(S'BH'
p4
S'O4'
p5
tp6
F0.8951477503362
s(S'I1'
p7
g4
tp8
F0.12429170918496579
s(g1
S'O2'
p9
tp10
F-6.012437523091439
s(g7
S'H1'
p11
tp12
F-0.9248426457108041
s(S'I2'
p13
S'H3'
p14
tp15
F-6.134656623247765
s(g14
g2
tp16
F2.665881515782956
s(S'H4'
p17
g5
tp18
F0.3940057239498745
s(S'H2'
p19
g9
tp20
F10.705361134110868
s(g11
g5
tp21
F-0.6451216020339581
s(S'BI'
p22
g11
tp23
F0.017685190064578804
s(g17
g2
tp24
F-0.2423429273017957
s(g22
g4
tp25
F-0.46066347503565674
s(g11
S'O1'
p26
tp27
F4.250941932966955
s(g13
g19
tp28
F-10.652394651675605
s(g22
g1
tp29
F0.8134853411363036
s(g19
g26
tp30
F-10.618819600489948
s(g7
g19
tp31
F10.066905645214877
s(g13
g1
tp32
F1.814100124756788
s(g4
g2
tp33
F0.296250973361209
s(g1
g26
tp34
F-1.0105893149299254
s(g17
g9
tp35
F-6.075475451276919
s(g14
g5
tp36
F-1.4356582929553918
s(g13
g11
tp37
F3.013906049236707
s(g1
g5
tp38
F1.3293112009176222
s(g22
g17
tp39
F-0.1828954413560836
s(g11
g9
tp40
F-4.833454877640763
s(g7
g14
tp41
F5.262926223585971
s(g14
g26
tp42
F-7.154638727859632
s(g13
g17
tp43
F3.7681730943079637
s(g4
g9
tp44
F-0.8500363262402281
s(g22
g14
tp45
F0.9355117201668987
s(g19
g5
tp46
F-1.7166210921107499
s(g7
g17
tp47
F-2.941880961325148
s(g17
g26
tp48
F1.5200991257780925
s(g11
g2
tp49
F-4.32728282031888
s(g14
g9
tp50
F5.034323880317385
s(g4
g26
tp51
F0.08228356432238049
s(g22
g19
tp52
F-0.520478819677882
s(g19
g2
tp53
F0.7638330604363222
s(g13
g4
tp54
F0.41619499060805
s(g7
g1
tp55
F-3.428915341993271
s.